target datalayout = "e-m:e-p270:32:32-p271:32:32-p272:64:64-i64:64-i128:128-f80:128-n8:16:32:64-S128"
target triple = "x86_64-pc-linux-gnu"

@.str.3 = private unnamed_addr constant [5 x i8] c"ILvh\00", align 1
@globalUtilOptind = external global i32, align 4
@.str.4 = private unnamed_addr constant [31 x i8] c"usage: super2 [-IL num] [-vh]\0A\00", align 1
@.str.5 = private unnamed_addr constant [65 x i8] c"\09         precomputes the supergates composed of AND2s and INVs\0A\00", align 1
@.str.6 = private unnamed_addr constant [68 x i8] c"\09-I num : the max number of inputs to the supergate [default = %d]\0A\00", align 1
@.str.7 = private unnamed_addr constant [66 x i8] c"\09-L num : the max number of logic levels of gates [default = %d]\0A\00", align 1
@.str.8 = private unnamed_addr constant [33 x i8] c"\09-v     : enable verbose output\0A\00", align 1
@.str.9 = private unnamed_addr constant [34 x i8] c"\09-h     : print the help message\0A\00", align 1

; Function Attrs: inlinehint nounwind willreturn memory(read) uwtable
define available_externally i32 @atoi(ptr noundef nonnull %0) #3 {
  %2 = alloca ptr, align 8
  store ptr %0, ptr %2, align 8, !tbaa !16
  %3 = load ptr, ptr %2, align 8, !tbaa !16
  %4 = call i64 @strtol(ptr noundef %3, ptr noundef null, i32 noundef 10) #5
  %5 = trunc i64 %4 to i32
  ret i32 %5
}

; Function Attrs: nounwind uwtable
define internal i32 @Super_CommandSupergatesAnd(ptr noundef %0, i32 noundef %1, ptr noundef %2) #0 {
  %4 = alloca i32, align 4
  %5 = alloca ptr, align 8
  %6 = alloca i32, align 4
  %7 = alloca ptr, align 8
  %8 = alloca ptr, align 8
  %9 = alloca ptr, align 8
  %10 = alloca i32, align 4
  %11 = alloca i32, align 4
  %12 = alloca i32, align 4
  %13 = alloca i32, align 4
  %14 = alloca i32, align 4
  store ptr %0, ptr %5, align 8, !tbaa !3
  store i32 %1, ptr %6, align 4, !tbaa !8
  store ptr %2, ptr %7, align 8, !tbaa !10
  call void @llvm.lifetime.start.p0(i64 8, ptr %8) #5
  call void @llvm.lifetime.start.p0(i64 8, ptr %9) #5
  call void @llvm.lifetime.start.p0(i64 4, ptr %10) #5
  call void @llvm.lifetime.start.p0(i64 4, ptr %11) #5
  call void @llvm.lifetime.start.p0(i64 4, ptr %12) #5
  call void @llvm.lifetime.start.p0(i64 4, ptr %13) #5
  %15 = load ptr, ptr %5, align 8, !tbaa !3
  %16 = call ptr @Abc_FrameReadOut(ptr noundef %15)
  store ptr %16, ptr %8, align 8, !tbaa !12
  %17 = load ptr, ptr %5, align 8, !tbaa !3
  %18 = call ptr @Abc_FrameReadErr(ptr noundef %17)
  store ptr %18, ptr %9, align 8, !tbaa !12
  store i32 4, ptr %10, align 4, !tbaa !8
  store i32 3, ptr %11, align 4, !tbaa !8
  store i32 0, ptr %12, align 4, !tbaa !8
  call void (...) @Extra_UtilGetoptReset()
  br label %19

19:                                               ; preds = %57, %3
  %20 = load i32, ptr %6, align 4, !tbaa !8
  %21 = load ptr, ptr %7, align 8, !tbaa !10
  %22 = call i32 @Extra_UtilGetopt(i32 noundef %20, ptr noundef %21, ptr noundef @.str.3)
  store i32 %22, ptr %13, align 4, !tbaa !8
  %23 = icmp ne i32 %22, -1
  br i1 %23, label %24, label %58

24:                                               ; preds = %19
  %25 = load i32, ptr %13, align 4, !tbaa !8
  switch i32 %25, label %56 [
    i32 73, label %26
    i32 76, label %39
    i32 118, label %52
    i32 104, label %55
  ]

26:                                               ; preds = %24
  %27 = load ptr, ptr %7, align 8, !tbaa !10
  %28 = load i32, ptr @globalUtilOptind, align 4, !tbaa !8
  %29 = sext i32 %28 to i64
  %30 = getelementptr inbounds ptr, ptr %27, i64 %29
  %31 = load ptr, ptr %30, align 8, !tbaa !16
  %32 = call i32 @atoi(ptr noundef %31) #6
  store i32 %32, ptr %10, align 4, !tbaa !8
  %33 = load i32, ptr @globalUtilOptind, align 4, !tbaa !8
  %34 = add nsw i32 %33, 1
  store i32 %34, ptr @globalUtilOptind, align 4, !tbaa !8
  %35 = load i32, ptr %10, align 4, !tbaa !8
  %36 = icmp slt i32 %35, 0
  br i1 %36, label %37, label %38

37:                                               ; preds = %26
  br label %62

38:                                               ; preds = %26
  br label %57

39:                                               ; preds = %24
  %40 = load ptr, ptr %7, align 8, !tbaa !10
  %41 = load i32, ptr @globalUtilOptind, align 4, !tbaa !8
  %42 = sext i32 %41 to i64
  %43 = getelementptr inbounds ptr, ptr %40, i64 %42
  %44 = load ptr, ptr %43, align 8, !tbaa !16
  %45 = call i32 @atoi(ptr noundef %44) #6
  store i32 %45, ptr %11, align 4, !tbaa !8
  %46 = load i32, ptr @globalUtilOptind, align 4, !tbaa !8
  %47 = add nsw i32 %46, 1
  store i32 %47, ptr @globalUtilOptind, align 4, !tbaa !8
  %48 = load i32, ptr %11, align 4, !tbaa !8
  %49 = icmp slt i32 %48, 0
  br i1 %49, label %50, label %51

50:                                               ; preds = %39
  br label %62

51:                                               ; preds = %39
  br label %57

52:                                               ; preds = %24
  %53 = load i32, ptr %12, align 4, !tbaa !8
  %54 = xor i32 %53, 1
  store i32 %54, ptr %12, align 4, !tbaa !8
  br label %57

55:                                               ; preds = %24
  br label %62

56:                                               ; preds = %24
  br label %62

57:                                               ; preds = %52, %51, %38
  br label %19, !llvm.loop !22

58:                                               ; preds = %19
  %59 = load i32, ptr %10, align 4, !tbaa !8
  %60 = load i32, ptr %11, align 4, !tbaa !8
  %61 = load i32, ptr %12, align 4, !tbaa !8
  call void @Super2_Precompute(i32 noundef %59, i32 noundef %60, i32 noundef %61)
  store i32 0, ptr %4, align 4
  store i32 1, ptr %14, align 4
  br label %77

62:                                               ; preds = %56, %55, %50, %37
  %63 = load ptr, ptr %9, align 8, !tbaa !12
  %64 = call i32 (ptr, ptr, ...) @fprintf(ptr noundef %63, ptr noundef @.str.4) #5
  %65 = load ptr, ptr %9, align 8, !tbaa !12
  %66 = call i32 (ptr, ptr, ...) @fprintf(ptr noundef %65, ptr noundef @.str.5) #5
  %67 = load ptr, ptr %9, align 8, !tbaa !12
  %68 = load i32, ptr %10, align 4, !tbaa !8
  %69 = call i32 (ptr, ptr, ...) @fprintf(ptr noundef %67, ptr noundef @.str.6, i32 noundef %68) #5
  %70 = load ptr, ptr %9, align 8, !tbaa !12
  %71 = load i32, ptr %11, align 4, !tbaa !8
  %72 = call i32 (ptr, ptr, ...) @fprintf(ptr noundef %70, ptr noundef @.str.7, i32 noundef %71) #5
  %73 = load ptr, ptr %9, align 8, !tbaa !12
  %74 = call i32 (ptr, ptr, ...) @fprintf(ptr noundef %73, ptr noundef @.str.8) #5
  %75 = load ptr, ptr %9, align 8, !tbaa !12
  %76 = call i32 (ptr, ptr, ...) @fprintf(ptr noundef %75, ptr noundef @.str.9) #5
  store i32 1, ptr %4, align 4
  store i32 1, ptr %14, align 4
  br label %77

77:                                               ; preds = %62, %58
  call void @llvm.lifetime.end.p0(i64 4, ptr %13) #5
  call void @llvm.lifetime.end.p0(i64 4, ptr %12) #5
  call void @llvm.lifetime.end.p0(i64 4, ptr %11) #5
  call void @llvm.lifetime.end.p0(i64 4, ptr %10) #5
  call void @llvm.lifetime.end.p0(i64 8, ptr %9) #5
  call void @llvm.lifetime.end.p0(i64 8, ptr %8) #5
  %78 = load i32, ptr %4, align 4
  ret i32 %78
}