; Function Attrs: nounwind uwtable
define internal range(i32 0, 2) i32 @Super_CommandSupergatesAnd(ptr noundef %0, i32 noundef %1, ptr noundef %2) #0 {
  %4 = tail call ptr @Abc_FrameReadOut(ptr noundef %0) #6
  %5 = tail call ptr @Abc_FrameReadErr(ptr noundef %0) #6
  tail call void (...) @Extra_UtilGetoptReset() #6
  br label %.outer

.outer:                                           ; preds = %8, %3
  %.024.ph = phi i32 [ %14, %8 ], [ 4, %3 ]
  %.022.ph = phi i32 [ %.022.ph45, %8 ], [ 3, %3 ]
  %.021.ph = phi i32 [ %.021, %8 ], [ 0, %3 ]
  br label %.outer44

.outer44:                                         ; preds = %.outer, %17
  %.022.ph45 = phi i32 [ %.022.ph, %.outer ], [ %23, %17 ]
  %.021.ph46 = phi i32 [ %.021.ph, %.outer ], [ %.021, %17 ]
  br label %6

6:                                                ; preds = %.outer44, %26
  %.021 = phi i32 [ %27, %26 ], [ %.021.ph46, %.outer44 ]
  %7 = tail call i32 @Extra_UtilGetopt(i32 noundef %1, ptr noundef %2, ptr noundef nonnull @.str.3) #6
  switch i32 %7, label %.loopexit [
    i32 -1, label %28
    i32 73, label %8
    i32 76, label %17
    i32 118, label %26
  ]

8:                                                ; preds = %6
  %9 = load i32, ptr @globalUtilOptind, align 4, !tbaa !3
  %10 = sext i32 %9 to i64
  %11 = getelementptr inbounds ptr, ptr %2, i64 %10
  %12 = load ptr, ptr %11, align 8, !tbaa !7
  %13 = tail call i64 @strtol(ptr noundef nonnull captures(none) %12, ptr noundef null, i32 noundef 10) #6
  %14 = trunc i64 %13 to i32
  %15 = add nsw i32 %9, 1
  store i32 %15, ptr @globalUtilOptind, align 4, !tbaa !3
  %16 = icmp slt i32 %14, 0
  br i1 %16, label %.loopexit, label %.outer, !llvm.loop !12

17:                                               ; preds = %6
  %18 = load i32, ptr @globalUtilOptind, align 4, !tbaa !3
  %19 = sext i32 %18 to i64
  %20 = getelementptr inbounds ptr, ptr %2, i64 %19
  %21 = load ptr, ptr %20, align 8, !tbaa !7
  %22 = tail call i64 @strtol(ptr noundef nonnull captures(none) %21, ptr noundef null, i32 noundef 10) #6
  %23 = trunc i64 %22 to i32
  %24 = add nsw i32 %18, 1
  store i32 %24, ptr @globalUtilOptind, align 4, !tbaa !3
  %25 = icmp slt i32 %23, 0
  br i1 %25, label %.loopexit, label %.outer44, !llvm.loop !12

26:                                               ; preds = %6
  %27 = xor i32 %.021, 1
  br label %6, !llvm.loop !12

28:                                               ; preds = %6
  tail call void @Super2_Precompute(i32 noundef %.024.ph, i32 noundef %.022.ph45, i32 noundef %.021) #6
  br label %35

.loopexit:                                        ; preds = %8, %6, %17
  %.125 = phi i32 [ %.024.ph, %17 ], [ %.024.ph, %6 ], [ %14, %8 ]
  %.123 = phi i32 [ %.022.ph45, %6 ], [ %23, %17 ], [ %.022.ph45, %8 ]
  %29 = tail call i64 @fwrite(ptr nonnull @.str.4, i64 30, i64 1, ptr %5)
  %30 = tail call i64 @fwrite(ptr nonnull @.str.5, i64 64, i64 1, ptr %5)
  %31 = tail call i32 (ptr, ptr, ...) @fprintf(ptr noundef %5, ptr noundef nonnull @.str.6, i32 noundef %.125) #6
  %32 = tail call i32 (ptr, ptr, ...) @fprintf(ptr noundef %5, ptr noundef nonnull @.str.7, i32 noundef %.123) #6
  %33 = tail call i64 @fwrite(ptr nonnull @.str.8, i64 32, i64 1, ptr %5)
  %34 = tail call i64 @fwrite(ptr nonnull @.str.9, i64 33, i64 1, ptr %5)
  br label %35

35:                                               ; preds = %.loopexit, %28
  %.0 = phi i32 [ 1, %.loopexit ], [ 0, %28 ]
  ret i32 %.0
}